target datalayout = "e-m:e-p270:32:32-p271:32:32-p272:64:64-i64:64-i128:128-f80:128-n8:16:32:64-S128"
target triple = "x86_64-pc-linux-gnu"

@.str.60 = private unnamed_addr constant [15 x i8] c"lnet.ptl_index\00", align 1
@proto_register_lnet.ett = internal global [5 x ptr] [ptr @ett_lnet, ptr @ett_lnet_nid, ptr @ett_lnet_o2ib_connparams, ptr @ett_lnet_rdma_desc, ptr @ett_lnet_rdma_frag], align 16
@.str.103 = private unnamed_addr constant [15 x i8] c"Lustre Network\00", align 1
@.str.104 = private unnamed_addr constant [5 x i8] c"LNet\00", align 1
@.str.105 = private unnamed_addr constant [5 x i8] c"lnet\00", align 1
@proto_lnet = internal global i32 0, align 4
@lnet_handle = internal global ptr null, align 8
@.str.106 = private unnamed_addr constant [18 x i8] c"lnet portal index\00", align 1
@subdissector_table = internal global ptr null, align 8

; Function Attrs: null_pointer_is_valid sspstrong uwtable
define hidden void @proto_register_lnet() #0 {
  %1 = alloca ptr, align 8
  call void @llvm.lifetime.start.p0(i64 8, ptr %1) #6
  %2 = call i32 @proto_register_protocol(ptr noundef @.str.103, ptr noundef @.str.104, ptr noundef @.str.105)
  store i32 %2, ptr @proto_lnet, align 4
  %3 = load i32, ptr @proto_lnet, align 4
  call void @proto_register_field_array(i32 noundef %3, ptr noundef @proto_register_lnet.hf, i32 noundef 47)
  call void @proto_register_subtree_array(ptr noundef @proto_register_lnet.ett, i32 noundef 5)
  %4 = load i32, ptr @proto_lnet, align 4
  %5 = call ptr @expert_register_protocol(i32 noundef %4)
  store ptr %5, ptr %1, align 8
  %6 = load ptr, ptr %1, align 8
  call void @expert_register_field_array(ptr noundef %6, ptr noundef @proto_register_lnet.ei, i32 noundef 2)
  %7 = load i32, ptr @proto_lnet, align 4
  %8 = call ptr @register_dissector(ptr noundef @.str.105, ptr noundef @dissect_lnet, i32 noundef %7)
  store ptr %8, ptr @lnet_handle, align 8
  %9 = load i32, ptr @proto_lnet, align 4
  %10 = call ptr @register_dissector_table(ptr noundef @.str.60, ptr noundef @.str.106, i32 noundef %9, i32 noundef 7, i32 noundef 1)
  store ptr %10, ptr @subdissector_table, align 8
  call void @llvm.lifetime.end.p0(i64 8, ptr %1) #6
  ret void
}