; Function Attrs: null_pointer_is_valid sspstrong uwtable
define hidden void @proto_register_lnet() local_unnamed_addr #0 {
  %1 = tail call i32 @proto_register_protocol(ptr noundef nonnull @.str.103, ptr noundef nonnull @.str.104, ptr noundef nonnull @.str.105)
  store i32 %1, ptr @proto_lnet, align 4
  tail call void @proto_register_field_array(i32 noundef %1, ptr noundef nonnull @proto_register_lnet.hf, i32 noundef 47)
  tail call void @proto_register_subtree_array(ptr noundef nonnull @proto_register_lnet.ett, i32 noundef 5)
  %2 = load i32, ptr @proto_lnet, align 4
  %3 = tail call ptr @expert_register_protocol(i32 noundef %2)
  tail call void @expert_register_field_array(ptr noundef %3, ptr noundef nonnull @proto_register_lnet.ei, i32 noundef 2)
  %4 = load i32, ptr @proto_lnet, align 4
  %5 = tail call ptr @register_dissector(ptr noundef nonnull @.str.105, ptr noundef nonnull @dissect_lnet, i32 noundef %4)
  store ptr %5, ptr @lnet_handle, align 8
  %6 = load i32, ptr @proto_lnet, align 4
  %7 = tail call ptr @register_dissector_table(ptr noundef nonnull @.str.60, ptr noundef nonnull @.str.106, i32 noundef %6, i32 noundef 7, i32 noundef 1)
  store ptr %7, ptr @subdissector_table, align 8
  ret void
}